target datalayout = "e-m:e-p270:32:32-p271:32:32-p272:64:64-i64:64-i128:128-f80:128-n8:16:32:64-S128"
target triple = "x86_64-pc-linux-gnu"

%struct.mbedtls_cipher_definition_t = type { i32, ptr }
%struct.mbedtls_cipher_info_t = type { ptr, i32 }
%struct.mbedtls_cipher_base_t = type { i32, ptr, ptr, ptr, ptr, ptr, ptr, ptr, ptr, ptr, ptr, ptr }

@mbedtls_cipher_definitions = external constant [0 x %struct.mbedtls_cipher_definition_t], align 8
@mbedtls_cipher_base_lookup_table = external global [0 x ptr], align 8

; Function Attrs: inlinehint nounwind uwtable
define internal i64 @mbedtls_cipher_info_get_key_bitlen(ptr noundef %0) #3 {
  %2 = alloca i64, align 8
  %3 = alloca ptr, align 8
  store ptr %0, ptr %3, align 8, !tbaa !26
  %4 = load ptr, ptr %3, align 8, !tbaa !26
  %5 = icmp eq ptr %4, null
  br i1 %5, label %6, label %7

6:                                                ; preds = %1
  store i64 0, ptr %2, align 8
  br label %15

7:                                                ; preds = %1
  %8 = load ptr, ptr %3, align 8, !tbaa !26
  %9 = getelementptr inbounds nuw %struct.mbedtls_cipher_info_t, ptr %8, i32 0, i32 1
  %10 = load i32, ptr %9, align 8
  %11 = lshr i32 %10, 8
  %12 = and i32 %11, 15
  %13 = zext i32 %12 to i64
  %14 = shl i64 %13, 6
  store i64 %14, ptr %2, align 8
  br label %15

15:                                               ; preds = %7, %6
  %16 = load i64, ptr %2, align 8
  ret i64 %16
}

; Function Attrs: inlinehint nounwind uwtable
define internal ptr @mbedtls_cipher_get_base(ptr noundef %0) #3 {
  %2 = alloca ptr, align 8
  store ptr %0, ptr %2, align 8, !tbaa !26
  %3 = load ptr, ptr %2, align 8, !tbaa !26
  %4 = getelementptr inbounds nuw %struct.mbedtls_cipher_info_t, ptr %3, i32 0, i32 1
  %5 = load i32, ptr %4, align 8
  %6 = lshr i32 %5, 26
  %7 = and i32 %6, 31
  %8 = zext i32 %7 to i64
  %9 = getelementptr inbounds nuw [0 x ptr], ptr @mbedtls_cipher_base_lookup_table, i64 0, i64 %8
  %10 = load ptr, ptr %9, align 8, !tbaa !27
  ret ptr %10
}

; Function Attrs: nounwind uwtable
define hidden ptr @mbedtls_cipher_info_from_values(i32 noundef %0, i32 noundef %1, i32 noundef %2) #0 {
  %4 = alloca ptr, align 8
  %5 = alloca i32, align 4
  %6 = alloca i32, align 4
  %7 = alloca i32, align 4
  %8 = alloca ptr, align 8
  %9 = alloca i32, align 4
  store i32 %0, ptr %5, align 4, !tbaa !3
  store i32 %1, ptr %6, align 4, !tbaa !3
  store i32 %2, ptr %7, align 4, !tbaa !3
  call void @llvm.lifetime.start.p0(i64 8, ptr %8) #7
  store ptr @mbedtls_cipher_definitions, ptr %8, align 8, !tbaa !7
  br label %10

10:                                               ; preds = %47, %3
  %11 = load ptr, ptr %8, align 8, !tbaa !7
  %12 = getelementptr inbounds nuw %struct.mbedtls_cipher_definition_t, ptr %11, i32 0, i32 1
  %13 = load ptr, ptr %12, align 8, !tbaa !16
  %14 = icmp ne ptr %13, null
  br i1 %14, label %15, label %50

15:                                               ; preds = %10
  %16 = load ptr, ptr %8, align 8, !tbaa !7
  %17 = getelementptr inbounds nuw %struct.mbedtls_cipher_definition_t, ptr %16, i32 0, i32 1
  %18 = load ptr, ptr %17, align 8, !tbaa !16
  %19 = call ptr @mbedtls_cipher_get_base(ptr noundef %18)
  %20 = getelementptr inbounds nuw %struct.mbedtls_cipher_base_t, ptr %19, i32 0, i32 0
  %21 = load i32, ptr %20, align 8, !tbaa !23
  %22 = load i32, ptr %5, align 4, !tbaa !3
  %23 = icmp eq i32 %21, %22
  br i1 %23, label %24, label %46

24:                                               ; preds = %15
  %25 = load ptr, ptr %8, align 8, !tbaa !7
  %26 = getelementptr inbounds nuw %struct.mbedtls_cipher_definition_t, ptr %25, i32 0, i32 1
  %27 = load ptr, ptr %26, align 8, !tbaa !16
  %28 = call i64 @mbedtls_cipher_info_get_key_bitlen(ptr noundef %27)
  %29 = load i32, ptr %6, align 4, !tbaa !3
  %30 = zext i32 %29 to i64
  %31 = icmp eq i64 %28, %30
  br i1 %31, label %32, label %46

32:                                               ; preds = %24
  %33 = load ptr, ptr %8, align 8, !tbaa !7
  %34 = getelementptr inbounds nuw %struct.mbedtls_cipher_definition_t, ptr %33, i32 0, i32 1
  %35 = load ptr, ptr %34, align 8, !tbaa !16
  %36 = getelementptr inbounds nuw %struct.mbedtls_cipher_info_t, ptr %35, i32 0, i32 1
  %37 = load i32, ptr %36, align 8
  %38 = lshr i32 %37, 12
  %39 = and i32 %38, 15
  %40 = load i32, ptr %7, align 4, !tbaa !3
  %41 = icmp eq i32 %39, %40
  br i1 %41, label %42, label %46

42:                                               ; preds = %32
  %43 = load ptr, ptr %8, align 8, !tbaa !7
  %44 = getelementptr inbounds nuw %struct.mbedtls_cipher_definition_t, ptr %43, i32 0, i32 1
  %45 = load ptr, ptr %44, align 8, !tbaa !16
  store ptr %45, ptr %4, align 8
  store i32 1, ptr %9, align 4
  br label %51

46:                                               ; preds = %32, %24, %15
  br label %47

47:                                               ; preds = %46
  %48 = load ptr, ptr %8, align 8, !tbaa !7
  %49 = getelementptr inbounds nuw %struct.mbedtls_cipher_definition_t, ptr %48, i32 1
  store ptr %49, ptr %8, align 8, !tbaa !7
  br label %10, !llvm.loop !25

50:                                               ; preds = %10
  store ptr null, ptr %4, align 8
  store i32 1, ptr %9, align 4
  br label %51

51:                                               ; preds = %50, %42
  call void @llvm.lifetime.end.p0(i64 8, ptr %8) #7
  %52 = load ptr, ptr %4, align 8
  ret ptr %52
}