; Function Attrs: nofree norecurse nosync nounwind memory(read, inaccessiblemem: none) uwtable
define hidden ptr @mbedtls_cipher_info_from_values(i32 noundef %0, i32 noundef %1, i32 noundef %2) local_unnamed_addr #5 {
  %4 = load ptr, ptr getelementptr inbounds nuw (i8, ptr @mbedtls_cipher_definitions, i64 8), align 8, !tbaa !13
  %.not11 = icmp eq ptr %4, null
  br i1 %.not11, label %._crit_edge, label %.lr.ph

.lr.ph:                                           ; preds = %3, %21
  %5 = phi ptr [ %24, %21 ], [ %4, %3 ]
  %.012 = phi ptr [ %22, %21 ], [ @mbedtls_cipher_definitions, %3 ]
  %6 = getelementptr i8, ptr %5, i64 8
  %.val = load i32, ptr %6, align 8
  %7 = lshr i32 %.val, 26
  %8 = and i32 %7, 31
  %9 = zext nneg i32 %8 to i64
  %10 = getelementptr inbounds nuw [0 x ptr], ptr @mbedtls_cipher_base_lookup_table, i64 0, i64 %9
  %11 = load ptr, ptr %10, align 8, !tbaa !19
  %12 = load i32, ptr %11, align 8, !tbaa !21
  %13 = icmp eq i32 %12, %0
  br i1 %13, label %mbedtls_cipher_info_get_key_bitlen.exit, label %21

mbedtls_cipher_info_get_key_bitlen.exit:          ; preds = %.lr.ph
  %14 = lshr i32 %.val, 2
  %15 = and i32 %14, 960
  %16 = icmp eq i32 %15, %1
  br i1 %16, label %17, label %21

17:                                               ; preds = %mbedtls_cipher_info_get_key_bitlen.exit
  %18 = lshr i32 %.val, 12
  %19 = and i32 %18, 15
  %20 = icmp eq i32 %19, %2
  br i1 %20, label %._crit_edge, label %21

21:                                               ; preds = %.lr.ph, %mbedtls_cipher_info_get_key_bitlen.exit, %17
  %22 = getelementptr inbounds nuw i8, ptr %.012, i64 16
  %23 = getelementptr inbounds nuw i8, ptr %.012, i64 24
  %24 = load ptr, ptr %23, align 8, !tbaa !13
  %.not = icmp eq ptr %24, null
  br i1 %.not, label %._crit_edge, label %.lr.ph, !llvm.loop !23

._crit_edge:                                      ; preds = %17, %21, %3
  %.lcssa = phi ptr [ null, %3 ], [ null, %21 ], [ %5, %17 ]
  ret ptr %.lcssa
}